Certificate:
    Data:
        Version: 1 (0x0)
        Serial Number: 1 (0x1)
    Signature Algorithm: md5WithRSAEncryption
        Issuer: C=US, ST=Unset, L=Unset, O=Unset, CN=www.example.com
        Validity
            Not Before: Apr 12 15:13:11 2013 GMT
            Not After : Apr 12 15:13:11 2014 GMT
        Subject: C=US, ST=Unset, O=Unset, CN=www.example.com
        Subject Public Key Info:
            Public Key Algorithm: rsaEncryption
                Public-Key: (1024 bit)
                Modulus:
                    00:cc:e6:13:b3:23:05:86:cd:e9:8a:86:92:a9:ee:
                    2b:2b:a9:33:c0:da:7d:fe:a9:ed:fc:38:01:51:a7:
                    07:8a:ec:6f:ac:3f:a8:fd:e7:eb:8e:fe:13:7f:0e:
                    0c:8d:c1:18:4e:ac:97:d3:8e:66:ae:37:6f:2e:bc:
                    9d:e1:9c:b4:63:56:a8:85:a2:5f:bf:1d:8a:1c:22:
                    b6:0d:c9:e9:ea:74:14:b6:eb:a9:4a:43:13:fb:62:
                    70:f1:c0:a9:66:4a:b6:ce:cc:f8:1a:5f:df:46:2d:
                    e0:1c:53:b3:6f:35:38:da:c7:1e:2b:ee:13:84:f9:
                    d4:97:95:22:bb:1c:2e:dd:af
                Exponent: 65537 (0x10001)
    Signature Algorithm: md5WithRSAEncryption
         b5:47:d7:12:37:33:8e:81:df:8a:b4:dc:1a:64:7e:d4:f6:73:
         e2:bc:ab:71:b8:88:25:2a:bd:1d:1b:b1:0c:c2:a2:7e:db:35:
         2b:50:c2:ad:fa:6c:34:5b:23:38:16:2f:65:2b:62:bd:33:cf:
         48:3a:45:bc:f9:79:c2:e0:a2:f8:46:25:1b:17:f7:89:83:7d:
         4e:fd:e0:92:aa:ca:27:3c:a7:cb:51:f4:17:25:3b:9b:d9:d1:
         46:9a:2f:36:ad:2e:de:63:57:17:22:49:54:0a:a4:76:d9:62:
         a0:b8:e4:ec:24:c8:ca:6b:d7:fc:c8:a9:68:f7:fd:a2:4d:61:
         4e:49
-----BEGIN CERTIFICATE-----
MIICDTCCAXYCAQEwDQYJKoZIhvcNAQEEBQAwVzELMAkGA1UEBhMCVVMxDjAMBgNV
BAgTBVVuc2V0MQ4wDAYDVQQHEwVVbnNldDEOMAwGA1UEChMFVW5zZXQxGDAWBgNV
BAMTD3d3dy5leGFtcGxlLmNvbTAeFw0xMzA0MTIxNTEzMTFaFw0xNDA0MTIxNTEz
MTFaMEcxCzAJBgNVBAYTAlVTMQ4wDAYDVQQIEwVVbnNldDEOMAwGA1UEChMFVW5z
ZXQxGDAWBgNVBAMTD3d3dy5leGFtcGxlLmNvbTCBnzANBgkqhkiG9w0BAQEFAAOB
jQAwgYkCgYEAzOYTsyMFhs3pioaSqe4rK6kzwNp9/qnt/DgBUacHiuxvrD+o/efr
jv4Tfw4MjcEYTqyX045mrjdvLryd4Zy0Y1aohaJfvx2KHCK2Dcnp6nQUtuupSkMT
+2Jw8cCpZkq2zsz4Gl/fRi3gHFOzbzU42sceK+4ThPnUl5Uiuxwu3a8CAwEAATAN
BgkqhkiG9w0BAQQFAAOBgQC1R9cSNzOOgd+KtNwaZH7U9nPivKtxuIglKr0dG7EM
wqJ+2zUrUMKt+mw0WyM4Fi9lK2K9M89IOkW8+XnC4KL4RiUbF/eJg31O/eCSqson
PKfLUfQXJTub2dFGmi82rS7eY1cXIklUCqR22WKguOTsJMjKa9f8yKlo9/2iTWFO
SQ==
-----END CERTIFICATE-----
